target datalayout = "e-m:e-p270:32:32-p271:32:32-p272:64:64-i64:64-i128:128-f80:128-n8:16:32:64-S128"
target triple = "x86_64-pc-linux-gnu"

; Function Attrs: nounwind uwtable
define internal i32 @apply_case_fold3(i32 noundef %0, i32 noundef %1, ptr noundef %2, ptr noundef %3) #0 {
  %5 = alloca i32, align 4
  %6 = alloca i32, align 4
  %7 = alloca i32, align 4
  %8 = alloca ptr, align 8
  %9 = alloca ptr, align 8
  %10 = alloca i32, align 4
  %11 = alloca i32, align 4
  %12 = alloca i32, align 4
  %13 = alloca i32, align 4
  %14 = alloca i32, align 4
  %15 = alloca ptr, align 8
  %16 = alloca i32, align 4
  %17 = alloca i32, align 4
  %18 = alloca i32, align 4
  store i32 %0, ptr %6, align 4, !tbaa !9
  store i32 %1, ptr %7, align 4, !tbaa !9
  store ptr %2, ptr %8, align 8, !tbaa !31
  store ptr %3, ptr %9, align 8, !tbaa !31
  call void @llvm.lifetime.start.p0(i64 4, ptr %10) #7
  call void @llvm.lifetime.start.p0(i64 4, ptr %11) #7
  call void @llvm.lifetime.start.p0(i64 4, ptr %12) #7
  call void @llvm.lifetime.start.p0(i64 4, ptr %13) #7
  call void @llvm.lifetime.start.p0(i64 4, ptr %14) #7
  %19 = load i32, ptr %6, align 4, !tbaa !9
  store i32 %19, ptr %10, align 4, !tbaa !9
  br label %20

20:                                               ; preds = %111, %4
  %21 = load i32, ptr %10, align 4, !tbaa !9
  %22 = load i32, ptr %7, align 4, !tbaa !9
  %23 = icmp slt i32 %21, %22
  br i1 %23, label %24, label %112

24:                                               ; preds = %20
  call void @llvm.lifetime.start.p0(i64 8, ptr %15) #7
  %25 = load i32, ptr %10, align 4, !tbaa !9
  %26 = sext i32 %25 to i64
  %27 = getelementptr inbounds i32, ptr @OnigUnicodeFolds3, i64 %26
  store ptr %27, ptr %15, align 8, !tbaa !25
  %28 = load i32, ptr %10, align 4, !tbaa !9
  %29 = add nsw i32 %28, 3
  %30 = sext i32 %29 to i64
  %31 = getelementptr inbounds [72 x i32], ptr @OnigUnicodeFolds3, i64 0, i64 %30
  %32 = load i32, ptr %31, align 4, !tbaa !9
  store i32 %32, ptr %13, align 4, !tbaa !9
  store i32 0, ptr %11, align 4, !tbaa !9
  br label %33

33:                                               ; preds = %97, %24
  %34 = load i32, ptr %11, align 4, !tbaa !9
  %35 = load i32, ptr %13, align 4, !tbaa !9
  %36 = icmp slt i32 %34, %35
  br i1 %36, label %37, label %100

37:                                               ; preds = %33
  call void @llvm.lifetime.start.p0(i64 4, ptr %16) #7
  %38 = load i32, ptr %10, align 4, !tbaa !9
  %39 = sext i32 %38 to i64
  %40 = getelementptr inbounds i32, ptr @OnigUnicodeFolds3, i64 %39
  %41 = getelementptr inbounds i32, ptr %40, i64 4
  %42 = load i32, ptr %11, align 4, !tbaa !9
  %43 = sext i32 %42 to i64
  %44 = getelementptr inbounds i32, ptr %41, i64 %43
  %45 = load i32, ptr %44, align 4, !tbaa !9
  store i32 %45, ptr %16, align 4, !tbaa !9
  %46 = load ptr, ptr %8, align 8, !tbaa !31
  %47 = load i32, ptr %16, align 4, !tbaa !9
  %48 = load ptr, ptr %15, align 8, !tbaa !25
  %49 = load ptr, ptr %9, align 8, !tbaa !31
  %50 = call i32 %46(i32 noundef %47, ptr noundef %48, i32 noundef 3, ptr noundef %49)
  store i32 %50, ptr %14, align 4, !tbaa !9
  %51 = load i32, ptr %14, align 4, !tbaa !9
  %52 = icmp ne i32 %51, 0
  br i1 %52, label %53, label %55

53:                                               ; preds = %37
  %54 = load i32, ptr %14, align 4, !tbaa !9
  store i32 %54, ptr %5, align 4
  store i32 1, ptr %17, align 4
  br label %94

55:                                               ; preds = %37
  store i32 0, ptr %12, align 4, !tbaa !9
  br label %56

56:                                               ; preds = %90, %55
  %57 = load i32, ptr %12, align 4, !tbaa !9
  %58 = load i32, ptr %11, align 4, !tbaa !9
  %59 = icmp slt i32 %57, %58
  br i1 %59, label %60, label %93

60:                                               ; preds = %56
  call void @llvm.lifetime.start.p0(i64 4, ptr %18) #7
  %61 = load i32, ptr %10, align 4, !tbaa !9
  %62 = sext i32 %61 to i64
  %63 = getelementptr inbounds i32, ptr @OnigUnicodeFolds3, i64 %62
  %64 = getelementptr inbounds i32, ptr %63, i64 4
  %65 = load i32, ptr %12, align 4, !tbaa !9
  %66 = sext i32 %65 to i64
  %67 = getelementptr inbounds i32, ptr %64, i64 %66
  %68 = load i32, ptr %67, align 4, !tbaa !9
  store i32 %68, ptr %18, align 4, !tbaa !9
  %69 = load ptr, ptr %8, align 8, !tbaa !31
  %70 = load i32, ptr %16, align 4, !tbaa !9
  %71 = load ptr, ptr %9, align 8, !tbaa !31
  %72 = call i32 %69(i32 noundef %70, ptr noundef %18, i32 noundef 1, ptr noundef %71)
  store i32 %72, ptr %14, align 4, !tbaa !9
  %73 = load i32, ptr %14, align 4, !tbaa !9
  %74 = icmp ne i32 %73, 0
  br i1 %74, label %75, label %77

75:                                               ; preds = %60
  %76 = load i32, ptr %14, align 4, !tbaa !9
  store i32 %76, ptr %5, align 4
  store i32 1, ptr %17, align 4
  br label %87

77:                                               ; preds = %60
  %78 = load ptr, ptr %8, align 8, !tbaa !31
  %79 = load i32, ptr %18, align 4, !tbaa !9
  %80 = load ptr, ptr %9, align 8, !tbaa !31
  %81 = call i32 %78(i32 noundef %79, ptr noundef %16, i32 noundef 1, ptr noundef %80)
  store i32 %81, ptr %14, align 4, !tbaa !9
  %82 = load i32, ptr %14, align 4, !tbaa !9
  %83 = icmp ne i32 %82, 0
  br i1 %83, label %84, label %86

84:                                               ; preds = %77
  %85 = load i32, ptr %14, align 4, !tbaa !9
  store i32 %85, ptr %5, align 4
  store i32 1, ptr %17, align 4
  br label %87

86:                                               ; preds = %77
  store i32 0, ptr %17, align 4
  br label %87

87:                                               ; preds = %86, %84, %75
  call void @llvm.lifetime.end.p0(i64 4, ptr %18) #7
  %88 = load i32, ptr %17, align 4
  switch i32 %88, label %94 [
    i32 0, label %89
  ]

89:                                               ; preds = %87
  br label %90

90:                                               ; preds = %89
  %91 = load i32, ptr %12, align 4, !tbaa !9
  %92 = add nsw i32 %91, 1
  store i32 %92, ptr %12, align 4, !tbaa !9
  br label %56, !llvm.loop !38

93:                                               ; preds = %56
  store i32 0, ptr %17, align 4
  br label %94

94:                                               ; preds = %93, %87, %53
  call void @llvm.lifetime.end.p0(i64 4, ptr %16) #7
  %95 = load i32, ptr %17, align 4
  switch i32 %95, label %109 [
    i32 0, label %96
  ]

96:                                               ; preds = %94
  br label %97

97:                                               ; preds = %96
  %98 = load i32, ptr %11, align 4, !tbaa !9
  %99 = add nsw i32 %98, 1
  store i32 %99, ptr %11, align 4, !tbaa !9
  br label %33, !llvm.loop !39

100:                                              ; preds = %33
  %101 = load i32, ptr %10, align 4, !tbaa !9
  %102 = add nsw i32 %101, 4
  %103 = load i32, ptr %10, align 4, !tbaa !9
  %104 = add nsw i32 %103, 3
  %105 = sext i32 %104 to i64
  %106 = getelementptr inbounds [72 x i32], ptr @OnigUnicodeFolds3, i64 0, i64 %105
  %107 = load i32, ptr %106, align 4, !tbaa !9
  %108 = add i32 %102, %107
  store i32 %108, ptr %10, align 4, !tbaa !9
  store i32 0, ptr %17, align 4
  br label %109

109:                                              ; preds = %100, %94
  call void @llvm.lifetime.end.p0(i64 8, ptr %15) #7
  %110 = load i32, ptr %17, align 4
  switch i32 %110, label %113 [
    i32 0, label %111
  ]

111:                                              ; preds = %109
  br label %20, !llvm.loop !40

112:                                              ; preds = %20
  store i32 0, ptr %5, align 4
  store i32 1, ptr %17, align 4
  br label %113

113:                                              ; preds = %112, %109
  call void @llvm.lifetime.end.p0(i64 4, ptr %14) #7
  call void @llvm.lifetime.end.p0(i64 4, ptr %13) #7
  call void @llvm.lifetime.end.p0(i64 4, ptr %12) #7
  call void @llvm.lifetime.end.p0(i64 4, ptr %11) #7
  call void @llvm.lifetime.end.p0(i64 4, ptr %10) #7
  %114 = load i32, ptr %5, align 4
  ret i32 %114
}